libwebvfx.so.1:_Z24qInitResources_resourcesv
libwebvfx.so.1:_Z27qCleanupResources_resourcesv
libwebvfx.so.1:_ZN6WebVfx10Parameters16getRectParameterERK7QString
libwebvfx.so.1:_ZN6WebVfx10Parameters18getNumberParameterERK7QString
libwebvfx.so.1:_ZN6WebVfx10Parameters18getStringParameterERK7QString
libwebvfx.so.1:_ZN6WebVfx10ParametersD0Ev
libwebvfx.so.1:_ZN6WebVfx10ParametersD1Ev
libwebvfx.so.1:_ZN6WebVfx10ParametersD2Ev
libwebvfx.so.1:_ZN6WebVfx10QmlContent10createViewEP7QWidget
libwebvfx.so.1:_ZN6WebVfx10QmlContent11loadContentERK4QUrl
libwebvfx.so.1:_ZN6WebVfx10QmlContent11logWarningsERK5QListI9QQmlErrorE
libwebvfx.so.1:_ZN6WebVfx10QmlContent11qt_metacallEN11QMetaObject4CallEiPPv
libwebvfx.so.1:_ZN6WebVfx10QmlContent11qt_metacastEPKc
libwebvfx.so.1:_ZN6WebVfx10QmlContent12paintContentEP8QPainter
libwebvfx.so.1:_ZN6WebVfx10QmlContent13renderContentEdPNS_5ImageE
libwebvfx.so.1:_ZN6WebVfx10QmlContent14setContentSizeERK5QSize
libwebvfx.so.1:_ZN6WebVfx10QmlContent19contentLoadFinishedEb
libwebvfx.so.1:_ZN6WebVfx10QmlContent20qmlViewStatusChangedEN10QQuickView6StatusE
libwebvfx.so.1:_ZN6WebVfx10QmlContent22contentPreLoadFinishedEb
libwebvfx.so.1:_ZN6WebVfx10QmlContent26contentContextLoadFinishedEb
libwebvfx.so.1:_ZN6WebVfx10QmlContent6reloadEv
libwebvfx.so.1:_ZN6WebVfx10QmlContentC1ERK5QSizePNS_10ParametersE
libwebvfx.so.1:_ZN6WebVfx10QmlContentC2ERK5QSizePNS_10ParametersE
libwebvfx.so.1:_ZN6WebVfx10QmlContentD0Ev
libwebvfx.so.1:_ZN6WebVfx10QmlContentD1Ev
libwebvfx.so.1:_ZN6WebVfx10QmlContentD2Ev
libwebvfx.so.1:_ZN6WebVfx10WebContent10createViewEP7QWidget
libwebvfx.so.1:_ZN6WebVfx10WebContent11loadContentERK4QUrl
libwebvfx.so.1:_ZN6WebVfx10WebContent11qt_metacallEN11QMetaObject4CallEiPPv
libwebvfx.so.1:_ZN6WebVfx10WebContent11qt_metacastEPKc
libwebvfx.so.1:_ZN6WebVfx10WebContent12paintContentEP8QPainter
libwebvfx.so.1:_ZN6WebVfx10WebContent13renderContentEdPNS_5ImageE
libwebvfx.so.1:_ZN6WebVfx10WebContent14setContentSizeERK5QSize
libwebvfx.so.1:_ZN6WebVfx10WebContent14setTransparentEv
libwebvfx.so.1:_ZN6WebVfx10WebContent19contentLoadFinishedEb
libwebvfx.so.1:_ZN6WebVfx10WebContent19webPageLoadFinishedEb
libwebvfx.so.1:_ZN6WebVfx10WebContent20injectContentContextEv
libwebvfx.so.1:_ZN6WebVfx10WebContent22contentPreLoadFinishedEb
libwebvfx.so.1:_ZN6WebVfx10WebContent26contentContextLoadFinishedEb
libwebvfx.so.1:_ZN6WebVfx10WebContent6reloadEv
libwebvfx.so.1:_ZN6WebVfx10WebContent8settingsEv
libwebvfx.so.1:_ZN6WebVfx10WebContentC1ERK5QSizePNS_10ParametersE
libwebvfx.so.1:_ZN6WebVfx10WebContentC2ERK5QSizePNS_10ParametersE
libwebvfx.so.1:_ZN6WebVfx10WebContentD0Ev
libwebvfx.so.1:_ZN6WebVfx10WebContentD1Ev
libwebvfx.so.1:_ZN6WebVfx10WebContentD2Ev
libwebvfx.so.1:_ZN6WebVfx10initializeEv
libwebvfx.so.1:_ZN6WebVfx11EffectsImpl10initializeERK7QStringiiPNS_10ParametersEb
libwebvfx.so.1:_ZN6WebVfx11EffectsImpl10onUIThreadEv
libwebvfx.so.1:_ZN6WebVfx11EffectsImpl11qt_metacallEN11QMetaObject4CallEiPPv
libwebvfx.so.1:_ZN6WebVfx11EffectsImpl11qt_metacastEPKc
libwebvfx.so.1:_ZN6WebVfx11EffectsImpl14renderCompleteEb
libwebvfx.so.1:_ZN6WebVfx11EffectsImpl15getImageTypeMapEv
libwebvfx.so.1:_ZN6WebVfx11EffectsImpl15reloadInvokableEv
libwebvfx.so.1:_ZN6WebVfx11EffectsImpl15renderInvokableEdPNS_5ImageE
libwebvfx.so.1:_ZN6WebVfx11EffectsImpl18initializeCompleteEb
libwebvfx.so.1:_ZN6WebVfx11EffectsImpl19initializeInvokableERK4QUrlRK5QSizePNS_10ParametersEbb
libwebvfx.so.1:_ZN6WebVfx11EffectsImpl6reloadEv
libwebvfx.so.1:_ZN6WebVfx11EffectsImpl6renderEdPNS_5ImageE
libwebvfx.so.1:_ZN6WebVfx11EffectsImpl7destroyEv
libwebvfx.so.1:_ZN6WebVfx11EffectsImpl8setImageERK7QStringPNS_5ImageE
libwebvfx.so.1:_ZN6WebVfx11EffectsImplC1Ev
libwebvfx.so.1:_ZN6WebVfx11EffectsImplC2Ev
libwebvfx.so.1:_ZN6WebVfx11EffectsImplD0Ev
libwebvfx.so.1:_ZN6WebVfx11EffectsImplD1Ev
libwebvfx.so.1:_ZN6WebVfx11EffectsImplD2Ev
libwebvfx.so.1:_ZN6WebVfx11uiEventLoopEPv
libwebvfx.so.1:_ZN6WebVfx13createEffectsERK7QStringiiPNS_10ParametersEb
libwebvfx.so.1:_ZN6WebVfx13processEventsEv
libwebvfx.so.1:_ZN6WebVfx14ContentContext11getImageUrlERK7QString
libwebvfx.so.1:_ZN6WebVfx14ContentContext11qt_metacallEN11QMetaObject4CallEiPPv
libwebvfx.so.1:_ZN6WebVfx14ContentContext11qt_metacastEPKc
libwebvfx.so.1:_ZN6WebVfx14ContentContext11readyRenderEb
libwebvfx.so.1:_ZN6WebVfx14ContentContext15renderRequestedEd
libwebvfx.so.1:_ZN6WebVfx14ContentContext15setImageTypeMapERK4QMapI7QString8QVariantE
libwebvfx.so.1:_ZN6WebVfx14ContentContext16getRectParameterERK7QString
libwebvfx.so.1:_ZN6WebVfx14ContentContext18getNumberParameterERK7QString
libwebvfx.so.1:_ZN6WebVfx14ContentContext18getStringParameterERK7QString
libwebvfx.so.1:_ZN6WebVfx14ContentContext6renderEd
libwebvfx.so.1:_ZN6WebVfx14ContentContext8getImageERK7QString
libwebvfx.so.1:_ZN6WebVfx14ContentContext8setImageERK7QStringPNS_5ImageE
libwebvfx.so.1:_ZN6WebVfx14ContentContextC1EP7QObjectPNS_10ParametersE
libwebvfx.so.1:_ZN6WebVfx14ContentContextC2EP7QObjectPNS_10ParametersE
libwebvfx.so.1:_ZN6WebVfx14ContentContextD0Ev
libwebvfx.so.1:_ZN6WebVfx14ContentContextD1Ev
libwebvfx.so.1:_ZN6WebVfx14ContentContextD2Ev
libwebvfx.so.1:_ZN6WebVfx17FBORenderStrategy10createFBOsERK5QSize
libwebvfx.so.1:_ZN6WebVfx17FBORenderStrategy6renderEPNS_7ContentEPNS_5ImageE
libwebvfx.so.1:_ZN6WebVfx17FBORenderStrategyC1EP9QGLWidget
libwebvfx.so.1:_ZN6WebVfx17FBORenderStrategyC2EP9QGLWidget
libwebvfx.so.1:_ZN6WebVfx17FBORenderStrategyD0Ev
libwebvfx.so.1:_ZN6WebVfx17FBORenderStrategyD1Ev
libwebvfx.so.1:_ZN6WebVfx17FBORenderStrategyD2Ev
libwebvfx.so.1:_ZN6WebVfx19ImageRenderStrategy6renderEPNS_7ContentEPNS_5ImageE
libwebvfx.so.1:_ZN6WebVfx22GLWidgetRenderStrategy6renderEPNS_7ContentEPNS_5ImageE
libwebvfx.so.1:_ZN6WebVfx22GLWidgetRenderStrategy9createFBOERK5QSize
libwebvfx.so.1:_ZN6WebVfx22GLWidgetRenderStrategyC1EP9QGLWidget
libwebvfx.so.1:_ZN6WebVfx22GLWidgetRenderStrategyC2EP9QGLWidget
libwebvfx.so.1:_ZN6WebVfx22GLWidgetRenderStrategyD0Ev
libwebvfx.so.1:_ZN6WebVfx22GLWidgetRenderStrategyD1Ev
libwebvfx.so.1:_ZN6WebVfx22GLWidgetRenderStrategyD2Ev
libwebvfx.so.1:_ZN6WebVfx3logERK7QString
libwebvfx.so.1:_ZN6WebVfx5Image10copyPixelsERKS0_RS0_
libwebvfx.so.1:_ZN6WebVfx5Image14copyPixelsFromERKS0_
libwebvfx.so.1:_ZN6WebVfx6LoggerD0Ev
libwebvfx.so.1:_ZN6WebVfx6LoggerD1Ev
libwebvfx.so.1:_ZN6WebVfx6LoggerD2Ev
libwebvfx.so.1:_ZN6WebVfx7ContentD0Ev
libwebvfx.so.1:_ZN6WebVfx7ContentD1Ev
libwebvfx.so.1:_ZN6WebVfx7ContentD2Ev
libwebvfx.so.1:_ZN6WebVfx7EffectsD0Ev
libwebvfx.so.1:_ZN6WebVfx7EffectsD1Ev
libwebvfx.so.1:_ZN6WebVfx7EffectsD2Ev
libwebvfx.so.1:_ZN6WebVfx7WebPage11qt_metacallEN11QMetaObject4CallEiPPv
libwebvfx.so.1:_ZN6WebVfx7WebPage11qt_metacastEPKc
libwebvfx.so.1:_ZN6WebVfx7WebPage15javaScriptAlertEPNS_9QWebFrameERK7QString
libwebvfx.so.1:_ZN6WebVfx7WebPage23acceptNavigationRequestEPNS_9QWebFrameERKNS_15QNetworkRequestEN8QWebPage14NavigationTypeE
libwebvfx.so.1:_ZN6WebVfx7WebPage24javaScriptConsoleMessageERK7QStringiS3_
libwebvfx.so.1:_ZN6WebVfx7WebPage25shouldInterruptJavaScriptEv
libwebvfx.so.1:_ZN6WebVfx7WebPageC1EP7QObject
libwebvfx.so.1:_ZN6WebVfx7WebPageC2EP7QObject
libwebvfx.so.1:_ZN6WebVfx8shutdownEv
libwebvfx.so.1:_ZN6WebVfx9setLoggerEPNS_6LoggerE
libwebvfx.so.1:_ZNK6WebVfx10QmlContent10metaObjectEv
libwebvfx.so.1:_ZNK6WebVfx10WebContent10metaObjectEv
libwebvfx.so.1:_ZNK6WebVfx11EffectsImpl10metaObjectEv
libwebvfx.so.1:_ZNK6WebVfx14ContentContext10metaObjectEv
libwebvfx.so.1:_ZNK6WebVfx5Image12copyPixelsToERS0_
libwebvfx.so.1:_ZNK6WebVfx7WebPage10metaObjectEv
libwebvfx.so.1:_ZThn16_N6WebVfx10QmlContentD0Ev
libwebvfx.so.1:_ZThn16_N6WebVfx10QmlContentD1Ev
libwebvfx.so.1:_ZThn16_N6WebVfx11EffectsImpl14renderCompleteEb
libwebvfx.so.1:_ZThn16_N6WebVfx11EffectsImpl15getImageTypeMapEv
libwebvfx.so.1:_ZThn16_N6WebVfx11EffectsImpl6reloadEv
libwebvfx.so.1:_ZThn16_N6WebVfx11EffectsImpl6renderEdPNS_5ImageE
libwebvfx.so.1:_ZThn16_N6WebVfx11EffectsImpl7destroyEv
libwebvfx.so.1:_ZThn16_N6WebVfx11EffectsImpl8setImageERK7QStringPNS_5ImageE
libwebvfx.so.1:_ZThn16_N6WebVfx11EffectsImplD0Ev
libwebvfx.so.1:_ZThn16_N6WebVfx11EffectsImplD1Ev
libwebvfx.so.1:_ZTv0_n24_N6WebVfx10QmlContentD0Ev
libwebvfx.so.1:_ZTv0_n24_N6WebVfx10QmlContentD1Ev
libwebvfx.so.1:_ZTv0_n24_N6WebVfx10WebContentD0Ev
libwebvfx.so.1:_ZTv0_n24_N6WebVfx10WebContentD1Ev
libwebvfx.so.1:_ZTv0_n32_N6WebVfx10QmlContent11loadContentERK4QUrl
libwebvfx.so.1:_ZTv0_n32_N6WebVfx10WebContent11loadContentERK4QUrl
libwebvfx.so.1:_ZTv0_n40_N6WebVfx10QmlContent14setContentSizeERK5QSize
libwebvfx.so.1:_ZTv0_n40_N6WebVfx10WebContent14setContentSizeERK5QSize
libwebvfx.so.1:_ZTv0_n64_N6WebVfx10QmlContent13renderContentEdPNS_5ImageE
libwebvfx.so.1:_ZTv0_n64_N6WebVfx10WebContent13renderContentEdPNS_5ImageE
libwebvfx.so.1:_ZTv0_n72_N6WebVfx10QmlContent12paintContentEP8QPainter
libwebvfx.so.1:_ZTv0_n72_N6WebVfx10WebContent12paintContentEP8QPainter
libwebvfx.so.1:_ZTv0_n80_N6WebVfx10QmlContent10createViewEP7QWidget
libwebvfx.so.1:_ZTv0_n80_N6WebVfx10WebContent10createViewEP7QWidget
libwebvfx.so.1:_ZTv0_n88_N6WebVfx10QmlContent6reloadEv
libwebvfx.so.1:_ZTv0_n88_N6WebVfx10WebContent6reloadEv
